; ModuleID = '2/1002.c'
source_filename = "2/1002.c"
target datalayout = "e-m:e-p270:32:32-p271:32:32-p272:64:64-i64:64-f80:128-n8:16:32:64-S128"
target triple = "x86_64-pc-linux-gnu"

%struct.anon = type { i32, [32 x i8] }

@.str = private unnamed_addr constant [3 x i8] c"%d\00", align 1
@.str.1 = private unnamed_addr constant [5 x i8] c"%d%s\00", align 1
@.str.2 = private unnamed_addr constant [7 x i8] c"%c\0A%d\0A\00", align 1
@.str.3 = private unnamed_addr constant [4 x i8] c"%d\0A\00", align 1

; Function Attrs: noinline nounwind uwtable
define dso_local i32 @main(i32 %0, i8** %1) #0 {
  %3 = alloca i32, align 4
  %4 = alloca i32, align 4
  %5 = alloca i8**, align 8
  %6 = alloca i8, align 1
  %7 = alloca [255 x i32], align 16
  %8 = alloca i32, align 4
  %9 = alloca i32, align 4
  %10 = alloca i32, align 4
  %11 = alloca [1000 x %struct.anon], align 16
  store i32 0, i32* %3, align 4
  store i32 %0, i32* %4, align 4
  store i8** %1, i8*** %5, align 8
  store i8 0, i8* %6, align 1
  %12 = getelementptr inbounds [255 x i32], [255 x i32]* %7, i64 0, i64 0
  %13 = bitcast i32* %12 to i8*
  call void @llvm.memset.p0i8.i64(i8* align 16 %13, i8 0, i64 1020, i1 false)
  %14 = call i32 (i8*, ...) @__isoc99_scanf(i8* getelementptr inbounds ([3 x i8], [3 x i8]* @.str, i64 0, i64 0), i32* %10)
  store i32 0, i32* %8, align 4
  br label %15

15:                                               ; preds = %72, %2
  %16 = load i32, i32* %8, align 4
  %17 = load i32, i32* %10, align 4
  %18 = icmp slt i32 %16, %17
  br i1 %18, label %19, label %75

19:                                               ; preds = %15
  %20 = load i32, i32* %8, align 4
  %21 = sext i32 %20 to i64
  %22 = getelementptr inbounds [1000 x %struct.anon], [1000 x %struct.anon]* %11, i64 0, i64 %21
  %23 = getelementptr inbounds %struct.anon, %struct.anon* %22, i32 0, i32 0
  %24 = load i32, i32* %8, align 4
  %25 = sext i32 %24 to i64
  %26 = getelementptr inbounds [1000 x %struct.anon], [1000 x %struct.anon]* %11, i64 0, i64 %25
  %27 = getelementptr inbounds %struct.anon, %struct.anon* %26, i32 0, i32 1
  %28 = getelementptr inbounds [32 x i8], [32 x i8]* %27, i64 0, i64 0
  %29 = call i32 (i8*, ...) @__isoc99_scanf(i8* getelementptr inbounds ([5 x i8], [5 x i8]* @.str.1, i64 0, i64 0), i32* %23, i8* %28)
  store i32 0, i32* %9, align 4
  br label %30

30:                                               ; preds = %68, %19
  %31 = load i32, i32* %8, align 4
  %32 = sext i32 %31 to i64
  %33 = getelementptr inbounds [1000 x %struct.anon], [1000 x %struct.anon]* %11, i64 0, i64 %32
  %34 = getelementptr inbounds %struct.anon, %struct.anon* %33, i32 0, i32 1
  %35 = load i32, i32* %9, align 4
  %36 = sext i32 %35 to i64
  %37 = getelementptr inbounds [32 x i8], [32 x i8]* %34, i64 0, i64 %36
  %38 = load i8, i8* %37, align 1
  %39 = icmp ne i8 %38, 0
  br i1 %39, label %40, label %71

40:                                               ; preds = %30
  %41 = load i32, i32* %8, align 4
  %42 = sext i32 %41 to i64
  %43 = getelementptr inbounds [1000 x %struct.anon], [1000 x %struct.anon]* %11, i64 0, i64 %42
  %44 = getelementptr inbounds %struct.anon, %struct.anon* %43, i32 0, i32 1
  %45 = load i32, i32* %9, align 4
  %46 = sext i32 %45 to i64
  %47 = getelementptr inbounds [32 x i8], [32 x i8]* %44, i64 0, i64 %46
  %48 = load i8, i8* %47, align 1
  %49 = sext i8 %48 to i64
  %50 = getelementptr inbounds [255 x i32], [255 x i32]* %7, i64 0, i64 %49
  %51 = load i32, i32* %50, align 4
  %52 = add nsw i32 %51, 1
  store i32 %52, i32* %50, align 4
  %53 = load i8, i8* %6, align 1
  %54 = sext i8 %53 to i64
  %55 = getelementptr inbounds [255 x i32], [255 x i32]* %7, i64 0, i64 %54
  %56 = load i32, i32* %55, align 4
  %57 = icmp sgt i32 %52, %56
  br i1 %57, label %58, label %67

58:                                               ; preds = %40
  %59 = load i32, i32* %8, align 4
  %60 = sext i32 %59 to i64
  %61 = getelementptr inbounds [1000 x %struct.anon], [1000 x %struct.anon]* %11, i64 0, i64 %60
  %62 = getelementptr inbounds %struct.anon, %struct.anon* %61, i32 0, i32 1
  %63 = load i32, i32* %9, align 4
  %64 = sext i32 %63 to i64
  %65 = getelementptr inbounds [32 x i8], [32 x i8]* %62, i64 0, i64 %64
  %66 = load i8, i8* %65, align 1
  store i8 %66, i8* %6, align 1
  br label %67

67:                                               ; preds = %58, %40
  br label %68

68:                                               ; preds = %67
  %69 = load i32, i32* %9, align 4
  %70 = add nsw i32 %69, 1
  store i32 %70, i32* %9, align 4
  br label %30

71:                                               ; preds = %30
  br label %72

72:                                               ; preds = %71
  %73 = load i32, i32* %8, align 4
  %74 = add nsw i32 %73, 1
  store i32 %74, i32* %8, align 4
  br label %15

75:                                               ; preds = %15
  %76 = load i8, i8* %6, align 1
  %77 = sext i8 %76 to i32
  %78 = load i8, i8* %6, align 1
  %79 = sext i8 %78 to i64
  %80 = getelementptr inbounds [255 x i32], [255 x i32]* %7, i64 0, i64 %79
  %81 = load i32, i32* %80, align 4
  %82 = call i32 (i8*, ...) @printf(i8* getelementptr inbounds ([7 x i8], [7 x i8]* @.str.2, i64 0, i64 0), i32 %77, i32 %81)
  store i32 0, i32* %8, align 4
  br label %83

83:                                               ; preds = %105, %75
  %84 = load i32, i32* %8, align 4
  %85 = load i32, i32* %10, align 4
  %86 = icmp slt i32 %84, %85
  br i1 %86, label %87, label %108

87:                                               ; preds = %83
  %88 = load i32, i32* %8, align 4
  %89 = sext i32 %88 to i64
  %90 = getelementptr inbounds [1000 x %struct.anon], [1000 x %struct.anon]* %11, i64 0, i64 %89
  %91 = getelementptr inbounds %struct.anon, %struct.anon* %90, i32 0, i32 1
  %92 = getelementptr inbounds [32 x i8], [32 x i8]* %91, i64 0, i64 0
  %93 = load i8, i8* %6, align 1
  %94 = sext i8 %93 to i32
  %95 = call i8* @strchr(i8* %92, i32 %94) #4
  %96 = icmp ne i8* %95, null
  br i1 %96, label %97, label %104

97:                                               ; preds = %87
  %98 = load i32, i32* %8, align 4
  %99 = sext i32 %98 to i64
  %100 = getelementptr inbounds [1000 x %struct.anon], [1000 x %struct.anon]* %11, i64 0, i64 %99
  %101 = getelementptr inbounds %struct.anon, %struct.anon* %100, i32 0, i32 0
  %102 = load i32, i32* %101, align 4
  %103 = call i32 (i8*, ...) @printf(i8* getelementptr inbounds ([4 x i8], [4 x i8]* @.str.3, i64 0, i64 0), i32 %102)
  br label %104

104:                                              ; preds = %97, %87
  br label %105

105:                                              ; preds = %104
  %106 = load i32, i32* %8, align 4
  %107 = add nsw i32 %106, 1
  store i32 %107, i32* %8, align 4
  br label %83

108:                                              ; preds = %83
  ret i32 0
}

; Function Attrs: argmemonly nounwind willreturn
declare void @llvm.memset.p0i8.i64(i8* nocapture writeonly, i8, i64, i1 immarg) #1

declare dso_local i32 @__isoc99_scanf(i8*, ...) #2

declare dso_local i32 @printf(i8*, ...) #2

; Function Attrs: nounwind readonly
declare dso_local i8* @strchr(i8*, i32) #3


!llvm.module.flags = !{!0}
!llvm.ident = !{!1}

!0 = !{i32 1, !"wchar_size", i32 4}
!1 = !{!"clang version 10.0.0-4ubuntu1 "}
